; ModuleID = '58/1046.c'
source_filename = "58/1046.c"
target datalayout = "e-m:e-p270:32:32-p271:32:32-p272:64:64-i64:64-f80:128-n8:16:32:64-S128"
target triple = "x86_64-pc-linux-gnu"

@.str = private unnamed_addr constant [4 x i8] c"%d\0A\00", align 1

; Function Attrs: noinline nounwind uwtable
define dso_local i32 @judge(i8* %0) #0 {
  %2 = alloca i32, align 4
  %3 = alloca i8*, align 8
  %4 = alloca i32, align 4
  %5 = alloca i32, align 4
  store i8* %0, i8** %3, align 8
  %6 = load i8*, i8** %3, align 8
  %7 = call i64 @strlen(i8* %6) #3
  %8 = trunc i64 %7 to i32
  store i32 %8, i32* %5, align 4
  %9 = load i8*, i8** %3, align 8
  %10 = getelementptr inbounds i8, i8* %9, i64 0
  %11 = load i8, i8* %10, align 1
  %12 = sext i8 %11 to i32
  %13 = icmp sge i32 %12, 65
  br i1 %13, label %14, label %20

14:                                               ; preds = %1
  %15 = load i8*, i8** %3, align 8
  %16 = getelementptr inbounds i8, i8* %15, i64 0
  %17 = load i8, i8* %16, align 1
  %18 = sext i8 %17 to i32
  %19 = icmp sle i32 %18, 90
  br i1 %19, label %38, label %20

20:                                               ; preds = %14, %1
  %21 = load i8*, i8** %3, align 8
  %22 = getelementptr inbounds i8, i8* %21, i64 0
  %23 = load i8, i8* %22, align 1
  %24 = sext i8 %23 to i32
  %25 = icmp sge i32 %24, 97
  br i1 %25, label %26, label %32

26:                                               ; preds = %20
  %27 = load i8*, i8** %3, align 8
  %28 = getelementptr inbounds i8, i8* %27, i64 0
  %29 = load i8, i8* %28, align 1
  %30 = sext i8 %29 to i32
  %31 = icmp sle i32 %30, 122
  br i1 %31, label %38, label %32

32:                                               ; preds = %26, %20
  %33 = load i8*, i8** %3, align 8
  %34 = getelementptr inbounds i8, i8* %33, i64 0
  %35 = load i8, i8* %34, align 1
  %36 = sext i8 %35 to i32
  %37 = icmp eq i32 %36, 95
  br i1 %37, label %38, label %110

38:                                               ; preds = %32, %26, %14
  store i32 1, i32* %4, align 4
  br label %39

39:                                               ; preds = %101, %38
  %40 = load i32, i32* %4, align 4
  %41 = load i32, i32* %5, align 4
  %42 = icmp slt i32 %40, %41
  br i1 %42, label %43, label %104

43:                                               ; preds = %39
  %44 = load i8*, i8** %3, align 8
  %45 = load i32, i32* %4, align 4
  %46 = sext i32 %45 to i64
  %47 = getelementptr inbounds i8, i8* %44, i64 %46
  %48 = load i8, i8* %47, align 1
  %49 = sext i8 %48 to i32
  %50 = icmp sge i32 %49, 65
  br i1 %50, label %51, label %59

51:                                               ; preds = %43
  %52 = load i8*, i8** %3, align 8
  %53 = load i32, i32* %4, align 4
  %54 = sext i32 %53 to i64
  %55 = getelementptr inbounds i8, i8* %52, i64 %54
  %56 = load i8, i8* %55, align 1
  %57 = sext i8 %56 to i32
  %58 = icmp sle i32 %57, 90
  br i1 %58, label %99, label %59

59:                                               ; preds = %51, %43
  %60 = load i8*, i8** %3, align 8
  %61 = load i32, i32* %4, align 4
  %62 = sext i32 %61 to i64
  %63 = getelementptr inbounds i8, i8* %60, i64 %62
  %64 = load i8, i8* %63, align 1
  %65 = sext i8 %64 to i32
  %66 = icmp sge i32 %65, 97
  br i1 %66, label %67, label %75

67:                                               ; preds = %59
  %68 = load i8*, i8** %3, align 8
  %69 = load i32, i32* %4, align 4
  %70 = sext i32 %69 to i64
  %71 = getelementptr inbounds i8, i8* %68, i64 %70
  %72 = load i8, i8* %71, align 1
  %73 = sext i8 %72 to i32
  %74 = icmp sle i32 %73, 122
  br i1 %74, label %99, label %75

75:                                               ; preds = %67, %59
  %76 = load i8*, i8** %3, align 8
  %77 = load i32, i32* %4, align 4
  %78 = sext i32 %77 to i64
  %79 = getelementptr inbounds i8, i8* %76, i64 %78
  %80 = load i8, i8* %79, align 1
  %81 = sext i8 %80 to i32
  %82 = icmp eq i32 %81, 95
  br i1 %82, label %99, label %83

83:                                               ; preds = %75
  %84 = load i8*, i8** %3, align 8
  %85 = load i32, i32* %4, align 4
  %86 = sext i32 %85 to i64
  %87 = getelementptr inbounds i8, i8* %84, i64 %86
  %88 = load i8, i8* %87, align 1
  %89 = sext i8 %88 to i32
  %90 = icmp sge i32 %89, 48
  br i1 %90, label %91, label %100

91:                                               ; preds = %83
  %92 = load i8*, i8** %3, align 8
  %93 = load i32, i32* %4, align 4
  %94 = sext i32 %93 to i64
  %95 = getelementptr inbounds i8, i8* %92, i64 %94
  %96 = load i8, i8* %95, align 1
  %97 = sext i8 %96 to i32
  %98 = icmp sle i32 %97, 57
  br i1 %98, label %99, label %100

99:                                               ; preds = %91, %75, %67, %51
  br label %101

100:                                              ; preds = %91, %83
  br label %104

101:                                              ; preds = %99
  %102 = load i32, i32* %4, align 4
  %103 = add nsw i32 %102, 1
  store i32 %103, i32* %4, align 4
  br label %39

104:                                              ; preds = %100, %39
  %105 = load i32, i32* %4, align 4
  %106 = load i32, i32* %5, align 4
  %107 = icmp eq i32 %105, %106
  br i1 %107, label %108, label %109

108:                                              ; preds = %104
  store i32 1, i32* %2, align 4
  br label %111

109:                                              ; preds = %104
  store i32 0, i32* %2, align 4
  br label %111

110:                                              ; preds = %32
  store i32 0, i32* %2, align 4
  br label %111

111:                                              ; preds = %110, %109, %108
  %112 = load i32, i32* %2, align 4
  ret i32 %112
}

; Function Attrs: nounwind readonly
declare dso_local i64 @strlen(i8*) #1

; Function Attrs: noinline nounwind uwtable
define dso_local i32 @main() #0 {
  %1 = alloca i32, align 4
  %2 = alloca i32, align 4
  %3 = alloca i32, align 4
  %4 = alloca i32, align 4
  %5 = alloca [81 x i8], align 16
  store i32 0, i32* %1, align 4
  %6 = call i32 (i8*, ...) @__isoc99_scanf(i8* getelementptr inbounds ([4 x i8], [4 x i8]* @.str, i64 0, i64 0), i32* %2)
  store i32 0, i32* %4, align 4
  br label %7

7:                                                ; preds = %18, %0
  %8 = load i32, i32* %4, align 4
  %9 = load i32, i32* %2, align 4
  %10 = icmp slt i32 %8, %9
  br i1 %10, label %11, label %21

11:                                               ; preds = %7
  %12 = getelementptr inbounds [81 x i8], [81 x i8]* %5, i64 0, i64 0
  %13 = call i32 (i8*, ...) bitcast (i32 (...)* @gets to i32 (i8*, ...)*)(i8* %12)
  %14 = getelementptr inbounds [81 x i8], [81 x i8]* %5, i64 0, i64 0
  %15 = call i32 @judge(i8* %14)
  store i32 %15, i32* %3, align 4
  %16 = load i32, i32* %3, align 4
  %17 = call i32 (i8*, ...) @printf(i8* getelementptr inbounds ([4 x i8], [4 x i8]* @.str, i64 0, i64 0), i32 %16)
  br label %18

18:                                               ; preds = %11
  %19 = load i32, i32* %4, align 4
  %20 = add nsw i32 %19, 1
  store i32 %20, i32* %4, align 4
  br label %7

21:                                               ; preds = %7
  %22 = call i32 @getchar()
  %23 = call i32 @getchar()
  %24 = load i32, i32* %1, align 4
  ret i32 %24
}

declare dso_local i32 @__isoc99_scanf(i8*, ...) #2

declare dso_local i32 @gets(...) #2

declare dso_local i32 @printf(i8*, ...) #2

declare dso_local i32 @getchar() #2


!llvm.module.flags = !{!0}
!llvm.ident = !{!1}

!0 = !{i32 1, !"wchar_size", i32 4}
!1 = !{!"clang version 10.0.0-4ubuntu1 "}
